; Function Attrs: mustprogress uwtable
define void @_ZN6casadi10PolynomialC2Edd(ptr noundef nonnull align 8 dereferenceable(24) %0, double noundef %1, double noundef %2) unnamed_addr #3 align 2 personality ptr @__gxx_personality_v0 {
  tail call void @llvm.memset.p0.i64(ptr noundef nonnull align 8 dereferenceable(24) %0, i8 0, i64 24, i1 false)
  invoke void @_ZNSt6vectorIdSaIdEE17_M_default_appendEm(ptr noundef nonnull align 8 dereferenceable(24) %0, i64 noundef 2)
          to label %_ZNSt6vectorIdSaIdEE6resizeEm.exit unwind label %6

_ZNSt6vectorIdSaIdEE6resizeEm.exit:               ; preds = %3
  %.pre = load ptr, ptr %0, align 8
  store double %1, ptr %.pre, align 8
  %4 = load ptr, ptr %0, align 8
  %5 = getelementptr inbounds i8, ptr %4, i64 8
  store double %2, ptr %5, align 8
  ret void

6:                                                ; preds = %3
  %7 = landingpad { ptr, i32 }
          cleanup
  %8 = load ptr, ptr %0, align 8
  %.not.i.i.i = icmp eq ptr %8, null
  br i1 %.not.i.i.i, label %_ZNSt6vectorIdSaIdEED2Ev.exit, label %9

9:                                                ; preds = %6
  tail call void @_ZdlPv(ptr noundef nonnull %8) #20
  br label %_ZNSt6vectorIdSaIdEED2Ev.exit

_ZNSt6vectorIdSaIdEED2Ev.exit:                    ; preds = %6, %9
  resume { ptr, i32 } %7
}